target datalayout = "e-m:e-p270:32:32-p271:32:32-p272:64:64-i64:64-i128:128-f80:128-n8:16:32:64-S128"
target triple = "x86_64-pc-linux-gnu"

%"class.std::__cxx11::basic_string" = type { %"struct.std::__cxx11::basic_string<char>::_Alloc_hider", i64, %union.anon }
%"struct.std::__cxx11::basic_string<char>::_Alloc_hider" = type { ptr }
%union.anon = type { i64, [8 x i8] }
%"class.std::vector" = type { %"struct.std::_Vector_base" }
%"struct.std::_Vector_base" = type { %"struct.std::_Vector_base<ncnn::Mat, std::allocator<ncnn::Mat>>::_Vector_impl" }
%"struct.std::_Vector_base<ncnn::Mat, std::allocator<ncnn::Mat>>::_Vector_impl" = type { %"struct.std::_Vector_base<ncnn::Mat, std::allocator<ncnn::Mat>>::_Vector_impl_data" }
%"struct.std::_Vector_base<ncnn::Mat, std::allocator<ncnn::Mat>>::_Vector_impl_data" = type { ptr, ptr, ptr }
%struct.__ncnn_layer_t = type { ptr, ptr, ptr, ptr, ptr, ptr, ptr, ptr, ptr }
%"class.ncnn::Layer" = type { ptr, i8, i8, i8, i8, i8, i8, i8, i8, i8, i8, i8, i8, i8, i8, i8, i8, i8, i8, i8, i8, i32, ptr, i32, %"class.std::__cxx11::basic_string", %"class.std::__cxx11::basic_string", %"class.std::vector.3", %"class.std::vector.3", %"class.std::vector", %"class.std::vector" }
%"class.std::vector.3" = type { %"struct.std::_Vector_base.4" }
%"struct.std::_Vector_base.4" = type { %"struct.std::_Vector_base<int, std::allocator<int>>::_Vector_impl" }
%"struct.std::_Vector_base<int, std::allocator<int>>::_Vector_impl" = type { %"struct.std::_Vector_base<int, std::allocator<int>>::_Vector_impl_data" }
%"struct.std::_Vector_base<int, std::allocator<int>>::_Vector_impl_data" = type { ptr, ptr, ptr }
%struct.__ncnn_net_custom_layer_factory_t = type { ptr, ptr, ptr, ptr }

; Function Attrs: mustprogress nounwind uwtable
define hidden i32 @ncnn_layer_get_support_image_storage(ptr noundef %0) #0 {
  %2 = alloca ptr, align 8
  store ptr %0, ptr %2, align 8
  %3 = load ptr, ptr %2, align 8
  %4 = getelementptr inbounds nuw %struct.__ncnn_layer_t, ptr %3, i32 0, i32 0
  %5 = load ptr, ptr %4, align 8
  %6 = getelementptr inbounds nuw %"class.ncnn::Layer", ptr %5, i32 0, i32 8
  %7 = load i8, ptr %6, align 1
  %8 = trunc i8 %7 to i1
  %9 = zext i1 %8 to i32
  ret i32 %9
}

; Function Attrs: mustprogress nounwind uwtable
define hidden i32 @ncnn_layer_get_support_fp16_storage(ptr noundef %0) #0 {
  %2 = alloca ptr, align 8
  store ptr %0, ptr %2, align 8
  %3 = load ptr, ptr %2, align 8
  %4 = getelementptr inbounds nuw %struct.__ncnn_layer_t, ptr %3, i32 0, i32 0
  %5 = load ptr, ptr %4, align 8
  %6 = getelementptr inbounds nuw %"class.ncnn::Layer", ptr %5, i32 0, i32 6
  %7 = load i8, ptr %6, align 1
  %8 = trunc i8 %7 to i1
  %9 = zext i1 %8 to i32
  ret i32 %9
}

; Function Attrs: mustprogress nounwind uwtable
define hidden i32 @ncnn_layer_get_support_bf16_storage(ptr noundef %0) #0 {
  %2 = alloca ptr, align 8
  store ptr %0, ptr %2, align 8
  %3 = load ptr, ptr %2, align 8
  %4 = getelementptr inbounds nuw %struct.__ncnn_layer_t, ptr %3, i32 0, i32 0
  %5 = load ptr, ptr %4, align 8
  %6 = getelementptr inbounds nuw %"class.ncnn::Layer", ptr %5, i32 0, i32 5
  %7 = load i8, ptr %6, align 4
  %8 = trunc i8 %7 to i1
  %9 = zext i1 %8 to i32
  ret i32 %9
}

; Function Attrs: mustprogress nounwind uwtable
define hidden i32 @ncnn_layer_get_support_packing(ptr noundef %0) #0 {
  %2 = alloca ptr, align 8
  store ptr %0, ptr %2, align 8
  %3 = load ptr, ptr %2, align 8
  %4 = getelementptr inbounds nuw %struct.__ncnn_layer_t, ptr %3, i32 0, i32 0
  %5 = load ptr, ptr %4, align 8
  %6 = getelementptr inbounds nuw %"class.ncnn::Layer", ptr %5, i32 0, i32 4
  %7 = load i8, ptr %6, align 1
  %8 = trunc i8 %7 to i1
  %9 = zext i1 %8 to i32
  ret i32 %9
}

; Function Attrs: mustprogress nounwind uwtable
define hidden i32 @ncnn_layer_get_support_vulkan(ptr noundef %0) #0 {
  %2 = alloca ptr, align 8
  store ptr %0, ptr %2, align 8
  %3 = load ptr, ptr %2, align 8
  %4 = getelementptr inbounds nuw %struct.__ncnn_layer_t, ptr %3, i32 0, i32 0
  %5 = load ptr, ptr %4, align 8
  %6 = getelementptr inbounds nuw %"class.ncnn::Layer", ptr %5, i32 0, i32 3
  %7 = load i8, ptr %6, align 2
  %8 = trunc i8 %7 to i1
  %9 = zext i1 %8 to i32
  ret i32 %9
}

; Function Attrs: mustprogress nounwind uwtable
define hidden i32 @ncnn_layer_get_support_inplace(ptr noundef %0) #0 {
  %2 = alloca ptr, align 8
  store ptr %0, ptr %2, align 8
  %3 = load ptr, ptr %2, align 8
  %4 = getelementptr inbounds nuw %struct.__ncnn_layer_t, ptr %3, i32 0, i32 0
  %5 = load ptr, ptr %4, align 8
  %6 = getelementptr inbounds nuw %"class.ncnn::Layer", ptr %5, i32 0, i32 2
  %7 = load i8, ptr %6, align 1
  %8 = trunc i8 %7 to i1
  %9 = zext i1 %8 to i32
  ret i32 %9
}

; Function Attrs: mustprogress nounwind uwtable
define hidden i32 @ncnn_layer_get_one_blob_only(ptr noundef %0) #0 {
  %2 = alloca ptr, align 8
  store ptr %0, ptr %2, align 8
  %3 = load ptr, ptr %2, align 8
  %4 = getelementptr inbounds nuw %struct.__ncnn_layer_t, ptr %3, i32 0, i32 0
  %5 = load ptr, ptr %4, align 8
  %6 = getelementptr inbounds nuw %"class.ncnn::Layer", ptr %5, i32 0, i32 1
  %7 = load i8, ptr %6, align 8
  %8 = trunc i8 %7 to i1
  %9 = zext i1 %8 to i32
  ret i32 %9
}

; Function Attrs: mustprogress uwtable
define internal noundef ptr @_ZL27__Layer_c_api_layer_creatorPv(ptr noundef %0) #1 {
  %2 = alloca ptr, align 8
  %3 = alloca ptr, align 8
  %4 = alloca ptr, align 8
  %5 = alloca ptr, align 8
  store ptr %0, ptr %2, align 8
  %6 = load ptr, ptr %2, align 8
  store ptr %6, ptr %3, align 8
  %7 = load ptr, ptr %3, align 8
  %8 = getelementptr inbounds nuw %struct.__ncnn_net_custom_layer_factory_t, ptr %7, i32 0, i32 0
  %9 = load ptr, ptr %8, align 8
  %10 = load ptr, ptr %3, align 8
  %11 = getelementptr inbounds nuw %struct.__ncnn_net_custom_layer_factory_t, ptr %10, i32 0, i32 2
  %12 = load ptr, ptr %11, align 8
  %13 = call noundef ptr %9(ptr noundef %12)
  store ptr %13, ptr %4, align 8
  %14 = load ptr, ptr %4, align 8
  %15 = getelementptr inbounds nuw %struct.__ncnn_layer_t, ptr %14, i32 0, i32 0
  %16 = load ptr, ptr %15, align 8
  store ptr %16, ptr %5, align 8
  %17 = load ptr, ptr %4, align 8
  %18 = load ptr, ptr %5, align 8
  %19 = getelementptr inbounds nuw %"class.ncnn::Layer", ptr %18, i32 0, i32 22
  store ptr %17, ptr %19, align 8
  %20 = load ptr, ptr %4, align 8
  %21 = call i32 @ncnn_layer_get_one_blob_only(ptr noundef %20)
  %22 = icmp ne i32 %21, 0
  %23 = load ptr, ptr %5, align 8
  %24 = getelementptr inbounds nuw %"class.ncnn::Layer", ptr %23, i32 0, i32 1
  %25 = zext i1 %22 to i8
  store i8 %25, ptr %24, align 8
  %26 = load ptr, ptr %4, align 8
  %27 = call i32 @ncnn_layer_get_support_inplace(ptr noundef %26)
  %28 = icmp ne i32 %27, 0
  %29 = load ptr, ptr %5, align 8
  %30 = getelementptr inbounds nuw %"class.ncnn::Layer", ptr %29, i32 0, i32 2
  %31 = zext i1 %28 to i8
  store i8 %31, ptr %30, align 1
  %32 = load ptr, ptr %4, align 8
  %33 = call i32 @ncnn_layer_get_support_vulkan(ptr noundef %32)
  %34 = icmp ne i32 %33, 0
  %35 = load ptr, ptr %5, align 8
  %36 = getelementptr inbounds nuw %"class.ncnn::Layer", ptr %35, i32 0, i32 3
  %37 = zext i1 %34 to i8
  store i8 %37, ptr %36, align 2
  %38 = load ptr, ptr %4, align 8
  %39 = call i32 @ncnn_layer_get_support_packing(ptr noundef %38)
  %40 = icmp ne i32 %39, 0
  %41 = load ptr, ptr %5, align 8
  %42 = getelementptr inbounds nuw %"class.ncnn::Layer", ptr %41, i32 0, i32 4
  %43 = zext i1 %40 to i8
  store i8 %43, ptr %42, align 1
  %44 = load ptr, ptr %4, align 8
  %45 = call i32 @ncnn_layer_get_support_bf16_storage(ptr noundef %44)
  %46 = icmp ne i32 %45, 0
  %47 = load ptr, ptr %5, align 8
  %48 = getelementptr inbounds nuw %"class.ncnn::Layer", ptr %47, i32 0, i32 5
  %49 = zext i1 %46 to i8
  store i8 %49, ptr %48, align 4
  %50 = load ptr, ptr %4, align 8
  %51 = call i32 @ncnn_layer_get_support_fp16_storage(ptr noundef %50)
  %52 = icmp ne i32 %51, 0
  %53 = load ptr, ptr %5, align 8
  %54 = getelementptr inbounds nuw %"class.ncnn::Layer", ptr %53, i32 0, i32 6
  %55 = zext i1 %52 to i8
  store i8 %55, ptr %54, align 1
  %56 = load ptr, ptr %4, align 8
  %57 = call i32 @ncnn_layer_get_support_image_storage(ptr noundef %56)
  %58 = icmp ne i32 %57, 0
  %59 = load ptr, ptr %5, align 8
  %60 = getelementptr inbounds nuw %"class.ncnn::Layer", ptr %59, i32 0, i32 8
  %61 = zext i1 %58 to i8
  store i8 %61, ptr %60, align 1
  %62 = load ptr, ptr %5, align 8
  ret ptr %62
}