; Function Attrs: mustprogress uwtable
define internal noundef ptr @_ZL27__Layer_c_api_layer_creatorPv(ptr nocapture noundef readonly %0) #1 {
  %2 = load ptr, ptr %0, align 8
  %3 = getelementptr inbounds nuw i8, ptr %0, i64 16
  %4 = load ptr, ptr %3, align 8
  %5 = tail call noundef ptr %2(ptr noundef %4)
  %6 = load ptr, ptr %5, align 8
  %7 = getelementptr inbounds nuw i8, ptr %6, i64 32
  store ptr %5, ptr %7, align 8
  %8 = load ptr, ptr %5, align 8
  %9 = getelementptr inbounds nuw i8, ptr %8, i64 8
  %10 = load i8, ptr %9, align 8
  %11 = and i8 %10, 1
  %12 = getelementptr inbounds nuw i8, ptr %6, i64 8
  store i8 %11, ptr %12, align 8
  %13 = load ptr, ptr %5, align 8
  %14 = getelementptr inbounds nuw i8, ptr %13, i64 9
  %15 = load i8, ptr %14, align 1
  %16 = and i8 %15, 1
  %17 = getelementptr inbounds nuw i8, ptr %6, i64 9
  store i8 %16, ptr %17, align 1
  %18 = load ptr, ptr %5, align 8
  %19 = getelementptr inbounds nuw i8, ptr %18, i64 10
  %20 = load i8, ptr %19, align 2
  %21 = and i8 %20, 1
  %22 = getelementptr inbounds nuw i8, ptr %6, i64 10
  store i8 %21, ptr %22, align 2
  %23 = load ptr, ptr %5, align 8
  %24 = getelementptr inbounds nuw i8, ptr %23, i64 11
  %25 = load i8, ptr %24, align 1
  %26 = and i8 %25, 1
  %27 = getelementptr inbounds nuw i8, ptr %6, i64 11
  store i8 %26, ptr %27, align 1
  %28 = load ptr, ptr %5, align 8
  %29 = getelementptr inbounds nuw i8, ptr %28, i64 12
  %30 = load i8, ptr %29, align 4
  %31 = and i8 %30, 1
  %32 = getelementptr inbounds nuw i8, ptr %6, i64 12
  store i8 %31, ptr %32, align 4
  %33 = load ptr, ptr %5, align 8
  %34 = getelementptr inbounds nuw i8, ptr %33, i64 13
  %35 = load i8, ptr %34, align 1
  %36 = and i8 %35, 1
  %37 = getelementptr inbounds nuw i8, ptr %6, i64 13
  store i8 %36, ptr %37, align 1
  %38 = load ptr, ptr %5, align 8
  %39 = getelementptr inbounds nuw i8, ptr %38, i64 15
  %40 = load i8, ptr %39, align 1
  %41 = and i8 %40, 1
  %42 = getelementptr inbounds nuw i8, ptr %6, i64 15
  store i8 %41, ptr %42, align 1
  ret ptr %6
}